target datalayout = "e-m:e-p270:32:32-p271:32:32-p272:64:64-i64:64-i128:128-f80:128-n8:16:32:64-S128"
target triple = "x86_64-unknown-linux-gnu"

%"class.google::protobuf::RepeatedField" = type { i32, i32, ptr }
%"class.google::protobuf::internal::SymbolBase" = type { i8 }
%"class.google::protobuf::FieldDescriptor" = type { %"class.google::protobuf::internal::SymbolBase", i8, i8, i8, i32, ptr, ptr, ptr, ptr, %union.anon.33, %union.anon.34, ptr, ptr, ptr, %union.anon.35 }
%union.anon.33 = type { ptr }
%union.anon.34 = type { ptr }
%union.anon.35 = type { i64 }
%class.anon = type { ptr, ptr, ptr, ptr }
%"struct.std::pair.104" = type { ptr, i64 }

; Function Attrs: mustprogress nounwind uwtable
define linkonce_odr hidden void @_ZNK6google8protobuf13RepeatedFieldIiE12AnnotateSizeEii(ptr noundef nonnull align 8 dereferenceable(16) %this, i32 noundef %old_size, i32 noundef %new_size) #5 comdat align 2 {
entry:
  %this.addr = alloca ptr, align 8
  %old_size.addr = alloca i32, align 4
  %new_size.addr = alloca i32, align 4
  store ptr %this, ptr %this.addr, align 8
  store i32 %old_size, ptr %old_size.addr, align 4
  store i32 %new_size, ptr %new_size.addr, align 4
  %0 = load i32, ptr %old_size.addr, align 4
  %1 = load i32, ptr %new_size.addr, align 4
  %cmp = icmp ne i32 %0, %1
  br i1 %cmp, label %if.then, label %if.end4

if.then:                                          ; preds = %entry
  %2 = load i32, ptr %new_size.addr, align 4
  %3 = load i32, ptr %old_size.addr, align 4
  %cmp2 = icmp slt i32 %2, %3
  br i1 %cmp2, label %if.then3, label %if.end

if.then3:                                         ; preds = %if.then
  br label %if.end

if.end:                                           ; preds = %if.then3, %if.then
  br label %if.end4

if.end4:                                          ; preds = %if.end, %entry
  ret void
}

; Function Attrs: mustprogress nounwind uwtable
define linkonce_odr hidden noundef i32 @_ZN6google8protobuf13RepeatedFieldIiE19ExchangeCurrentSizeEi(ptr noundef nonnull align 8 dereferenceable(16) %this, i32 noundef %new_size) #5 comdat align 2 {
entry:
  %this.addr = alloca ptr, align 8
  %new_size.addr = alloca i32, align 4
  %prev_size = alloca i32, align 4
  store ptr %this, ptr %this.addr, align 8
  store i32 %new_size, ptr %new_size.addr, align 4
  %this1 = load ptr, ptr %this.addr, align 8
  %current_size_ = getelementptr inbounds %"class.google::protobuf::RepeatedField", ptr %this1, i32 0, i32 0
  %0 = load i32, ptr %current_size_, align 8
  store i32 %0, ptr %prev_size, align 4
  %1 = load i32, ptr %prev_size, align 4
  %2 = load i32, ptr %new_size.addr, align 4
  call void @_ZNK6google8protobuf13RepeatedFieldIiE12AnnotateSizeEii(ptr noundef nonnull align 8 dereferenceable(16) %this1, i32 noundef %1, i32 noundef %2)
  %3 = load i32, ptr %new_size.addr, align 4
  %current_size_2 = getelementptr inbounds %"class.google::protobuf::RepeatedField", ptr %this1, i32 0, i32 0
  store i32 %3, ptr %current_size_2, align 8
  %4 = load i32, ptr %prev_size, align 4
  ret i32 %4
}

; Function Attrs: mustprogress uwtable
define linkonce_odr hidden void @_ZN6google8protobuf13RepeatedFieldIiE4GrowEii(ptr noundef nonnull align 8 dereferenceable(16) %this, i32 noundef %current_size, i32 noundef %new_size) #4 comdat align 2 {
entry:
  %this.addr = alloca ptr, align 8
  %current_size.addr = alloca i32, align 4
  %new_size.addr = alloca i32, align 4
  store ptr %this, ptr %this.addr, align 8
  store i32 %current_size, ptr %current_size.addr, align 4
  store i32 %new_size, ptr %new_size.addr, align 4
  %this1 = load ptr, ptr %this.addr, align 8
  %0 = load i32, ptr %current_size.addr, align 4
  %total_size_ = getelementptr inbounds %"class.google::protobuf::RepeatedField", ptr %this1, i32 0, i32 1
  %1 = load i32, ptr %total_size_, align 4
  call void @_ZNK6google8protobuf13RepeatedFieldIiE12AnnotateSizeEii(ptr noundef nonnull align 8 dereferenceable(16) %this1, i32 noundef %0, i32 noundef %1)
  %2 = load i32, ptr %current_size.addr, align 4
  %3 = load i32, ptr %new_size.addr, align 4
  call void @_ZN6google8protobuf13RepeatedFieldIiE14GrowNoAnnotateEii(ptr noundef nonnull align 8 dereferenceable(16) %this1, i32 noundef %2, i32 noundef %3)
  %total_size_2 = getelementptr inbounds %"class.google::protobuf::RepeatedField", ptr %this1, i32 0, i32 1
  %4 = load i32, ptr %total_size_2, align 4
  %5 = load i32, ptr %current_size.addr, align 4
  call void @_ZNK6google8protobuf13RepeatedFieldIiE12AnnotateSizeEii(ptr noundef nonnull align 8 dereferenceable(16) %this1, i32 noundef %4, i32 noundef %5)
  ret void
}

; Function Attrs: mustprogress nounwind uwtable
define linkonce_odr hidden noundef ptr @_ZNK6google8protobuf13RepeatedFieldIiE15unsafe_elementsEv(ptr noundef nonnull align 8 dereferenceable(16) %this) #5 comdat align 2 {
entry:
  %this.addr = alloca ptr, align 8
  store ptr %this, ptr %this.addr, align 8
  %this1 = load ptr, ptr %this.addr, align 8
  %arena_or_elements_ = getelementptr inbounds %"class.google::protobuf::RepeatedField", ptr %this1, i32 0, i32 2
  %0 = load ptr, ptr %arena_or_elements_, align 8
  ret ptr %0
}

; Function Attrs: mustprogress uwtable
define linkonce_odr hidden void @_ZN6google8protobuf8internal11WriteVarintEjmPNS0_15UnknownFieldSetE(i32 noundef %num, i64 noundef %val, ptr noundef %unknown) #4 comdat {
entry:
  %num.addr = alloca i32, align 4
  %val.addr = alloca i64, align 8
  %unknown.addr = alloca ptr, align 8
  store i32 %num, ptr %num.addr, align 4
  store i64 %val, ptr %val.addr, align 8
  store ptr %unknown, ptr %unknown.addr, align 8
  %0 = load ptr, ptr %unknown.addr, align 8
  %1 = load i32, ptr %num.addr, align 4
  %2 = load i64, ptr %val.addr, align 8
  call void @_ZN6google8protobuf15UnknownFieldSet9AddVarintEim(ptr noundef nonnull align 8 dereferenceable(24) %0, i32 noundef %1, i64 noundef %2)
  ret void
}

; Function Attrs: mustprogress nounwind uwtable
define linkonce_odr hidden noundef i32 @_ZNK6google8protobuf15FieldDescriptor6numberEv(ptr noundef nonnull align 8 dereferenceable(88) %this) #5 comdat align 2 {
entry:
  %this.addr = alloca ptr, align 8
  store ptr %this, ptr %this.addr, align 8
  %this1 = load ptr, ptr %this.addr, align 8
  %number_ = getelementptr inbounds %"class.google::protobuf::FieldDescriptor", ptr %this1, i32 0, i32 4
  %0 = load i32, ptr %number_, align 4
  ret i32 %0
}

; Function Attrs: mustprogress uwtable
define linkonce_odr hidden void @_ZN6google8protobuf13RepeatedFieldIiE3AddEi(ptr noundef nonnull align 8 dereferenceable(16) %this, i32 noundef %value) #4 comdat align 2 {
entry:
  %this.addr = alloca ptr, align 8
  %value.addr = alloca i32, align 4
  %total_size = alloca i32, align 4
  %elem = alloca ptr, align 8
  %new_size = alloca i32, align 4
  %p = alloca ptr, align 8
  store ptr %this, ptr %this.addr, align 8
  store i32 %value, ptr %value.addr, align 4
  %this1 = load ptr, ptr %this.addr, align 8
  %total_size_ = getelementptr inbounds %"class.google::protobuf::RepeatedField", ptr %this1, i32 0, i32 1
  %0 = load i32, ptr %total_size_, align 4
  store i32 %0, ptr %total_size, align 4
  %call = call noundef ptr @_ZNK6google8protobuf13RepeatedFieldIiE15unsafe_elementsEv(ptr noundef nonnull align 8 dereferenceable(16) %this1)
  store ptr %call, ptr %elem, align 8
  %current_size_ = getelementptr inbounds %"class.google::protobuf::RepeatedField", ptr %this1, i32 0, i32 0
  %1 = load i32, ptr %current_size_, align 8
  %2 = load i32, ptr %total_size, align 4
  %cmp = icmp eq i32 %1, %2
  br i1 %cmp, label %if.then, label %if.end

if.then:                                          ; preds = %entry
  %current_size_2 = getelementptr inbounds %"class.google::protobuf::RepeatedField", ptr %this1, i32 0, i32 0
  %3 = load i32, ptr %current_size_2, align 8
  %current_size_3 = getelementptr inbounds %"class.google::protobuf::RepeatedField", ptr %this1, i32 0, i32 0
  %4 = load i32, ptr %current_size_3, align 8
  %add = add nsw i32 %4, 1
  call void @_ZN6google8protobuf13RepeatedFieldIiE4GrowEii(ptr noundef nonnull align 8 dereferenceable(16) %this1, i32 noundef %3, i32 noundef %add)
  %total_size_4 = getelementptr inbounds %"class.google::protobuf::RepeatedField", ptr %this1, i32 0, i32 1
  %5 = load i32, ptr %total_size_4, align 4
  store i32 %5, ptr %total_size, align 4
  %call5 = call noundef ptr @_ZNK6google8protobuf13RepeatedFieldIiE15unsafe_elementsEv(ptr noundef nonnull align 8 dereferenceable(16) %this1)
  store ptr %call5, ptr %elem, align 8
  br label %if.end

if.end:                                           ; preds = %if.then, %entry
  %current_size_6 = getelementptr inbounds %"class.google::protobuf::RepeatedField", ptr %this1, i32 0, i32 0
  %6 = load i32, ptr %current_size_6, align 8
  %add7 = add nsw i32 %6, 1
  store i32 %add7, ptr %new_size, align 4
  %7 = load ptr, ptr %elem, align 8
  %8 = load i32, ptr %new_size, align 4
  %call8 = call noundef i32 @_ZN6google8protobuf13RepeatedFieldIiE19ExchangeCurrentSizeEi(ptr noundef nonnull align 8 dereferenceable(16) %this1, i32 noundef %8)
  %idx.ext = sext i32 %call8 to i64
  %add.ptr = getelementptr inbounds i32, ptr %7, i64 %idx.ext
  store ptr %add.ptr, ptr %p, align 8
  %9 = load ptr, ptr %p, align 8
  %10 = load i32, ptr %value.addr, align 4
  store i32 %10, ptr %9, align 4
  %11 = load i32, ptr %new_size, align 4
  %current_size_9 = getelementptr inbounds %"class.google::protobuf::RepeatedField", ptr %this1, i32 0, i32 0
  %12 = load i32, ptr %current_size_9, align 8
  %cmp10 = icmp eq i32 %11, %12
  call void @llvm.assume(i1 %cmp10)
  %13 = load ptr, ptr %elem, align 8
  %arena_or_elements_ = getelementptr inbounds %"class.google::protobuf::RepeatedField", ptr %this1, i32 0, i32 2
  %14 = load ptr, ptr %arena_or_elements_, align 8
  %cmp11 = icmp eq ptr %13, %14
  call void @llvm.assume(i1 %cmp11)
  %15 = load i32, ptr %total_size, align 4
  %total_size_12 = getelementptr inbounds %"class.google::protobuf::RepeatedField", ptr %this1, i32 0, i32 1
  %16 = load i32, ptr %total_size_12, align 4
  %cmp13 = icmp eq i32 %15, %16
  call void @llvm.assume(i1 %cmp13)
  ret void
}

; Function Attrs: mustprogress uwtable
define linkonce_odr hidden noundef ptr @_ZN6google8protobuf8internal15VarintParseSlowEPKcjPm(ptr noundef %p, i32 noundef %res, ptr noundef %out) #4 comdat {
entry:
  %p.addr = alloca ptr, align 8
  %res.addr = alloca i32, align 4
  %out.addr = alloca ptr, align 8
  %tmp = alloca %"struct.std::pair.104", align 8
  store ptr %p, ptr %p.addr, align 8
  store i32 %res, ptr %res.addr, align 4
  store ptr %out, ptr %out.addr, align 8
  %0 = load ptr, ptr %p.addr, align 8
  %1 = load i32, ptr %res.addr, align 4
  %call = call { ptr, i64 } @_ZN6google8protobuf8internal17VarintParseSlow64EPKcj(ptr noundef %0, i32 noundef %1)
  %2 = getelementptr inbounds { ptr, i64 }, ptr %tmp, i32 0, i32 0
  %3 = extractvalue { ptr, i64 } %call, 0
  store ptr %3, ptr %2, align 8
  %4 = getelementptr inbounds { ptr, i64 }, ptr %tmp, i32 0, i32 1
  %5 = extractvalue { ptr, i64 } %call, 1
  store i64 %5, ptr %4, align 8
  %second = getelementptr inbounds %"struct.std::pair.104", ptr %tmp, i32 0, i32 1
  %6 = load i64, ptr %second, align 8
  %7 = load ptr, ptr %out.addr, align 8
  store i64 %6, ptr %7, align 8
  %first = getelementptr inbounds %"struct.std::pair.104", ptr %tmp, i32 0, i32 0
  %8 = load ptr, ptr %first, align 8
  ret ptr %8
}

; Function Attrs: mustprogress uwtable
define internal void @"_ZZN6google8protobuf8internal10WireFormat27_InternalParseAndMergeFieldEPNS0_7MessageEPKcPNS1_12ParseContextEmPKNS0_10ReflectionEPKNS0_15FieldDescriptorEENK3$_0clEi"(ptr noundef nonnull align 8 dereferenceable(32) %this, i32 noundef %val) #4 align 2 {
entry:
  %this.addr = alloca ptr, align 8
  %val.addr = alloca i32, align 4
  store ptr %this, ptr %this.addr, align 8
  store i32 %val, ptr %val.addr, align 4
  %this1 = load ptr, ptr %this.addr, align 8
  %0 = getelementptr inbounds %class.anon, ptr %this1, i32 0, i32 1
  %1 = load ptr, ptr %0, align 8
  %call = call noundef ptr @_ZNK6google8protobuf15FieldDescriptor9enum_typeEv(ptr noundef nonnull align 8 dereferenceable(88) %1)
  %2 = load i32, ptr %val.addr, align 4
  %call2 = call noundef ptr @_ZNK6google8protobuf14EnumDescriptor17FindValueByNumberEi(ptr noundef nonnull align 8 dereferenceable(88) %call, i32 noundef %2)
  %cmp = icmp ne ptr %call2, null
  br i1 %cmp, label %if.then, label %if.else

if.then:                                          ; preds = %entry
  %3 = getelementptr inbounds %class.anon, ptr %this1, i32 0, i32 0
  %4 = load ptr, ptr %3, align 8
  %5 = load i32, ptr %val.addr, align 4
  call void @_ZN6google8protobuf13RepeatedFieldIiE3AddEi(ptr noundef nonnull align 8 dereferenceable(16) %4, i32 noundef %5)
  br label %if.end

if.else:                                          ; preds = %entry
  %6 = getelementptr inbounds %class.anon, ptr %this1, i32 0, i32 1
  %7 = load ptr, ptr %6, align 8
  %call3 = call noundef i32 @_ZNK6google8protobuf15FieldDescriptor6numberEv(ptr noundef nonnull align 8 dereferenceable(88) %7)
  %8 = load i32, ptr %val.addr, align 4
  %conv = sext i32 %8 to i64
  %9 = getelementptr inbounds %class.anon, ptr %this1, i32 0, i32 2
  %10 = load ptr, ptr %9, align 8
  %11 = getelementptr inbounds %class.anon, ptr %this1, i32 0, i32 3
  %12 = load ptr, ptr %11, align 8
  %call4 = call noundef ptr @_ZNK6google8protobuf10Reflection20MutableUnknownFieldsEPNS0_7MessageE(ptr noundef nonnull align 8 dereferenceable(112) %10, ptr noundef %12)
  call void @_ZN6google8protobuf8internal11WriteVarintEjmPNS0_15UnknownFieldSetE(i32 noundef %call3, i64 noundef %conv, ptr noundef %call4)
  br label %if.end

if.end:                                           ; preds = %if.else, %if.then
  ret void
}

; Function Attrs: mustprogress uwtable
define linkonce_odr hidden noundef ptr @_ZN6google8protobuf8internal11VarintParseImEEPKcS4_PT_(ptr noundef %p, ptr noundef %out) #4 comdat {
entry:
  %retval = alloca ptr, align 8
  %p.addr = alloca ptr, align 8
  %out.addr = alloca ptr, align 8
  %ptr = alloca ptr, align 8
  %res = alloca i32, align 4
  store ptr %p, ptr %p.addr, align 8
  store ptr %out, ptr %out.addr, align 8
  %0 = load ptr, ptr %p.addr, align 8
  store ptr %0, ptr %ptr, align 8
  %1 = load ptr, ptr %ptr, align 8
  %arrayidx = getelementptr inbounds i8, ptr %1, i64 0
  %2 = load i8, ptr %arrayidx, align 1
  %conv = zext i8 %2 to i32
  store i32 %conv, ptr %res, align 4
  %3 = load i32, ptr %res, align 4
  %and = and i32 %3, 128
  %cmp = icmp eq i32 %and, 0
  br i1 %cmp, label %if.then, label %if.end

if.then:                                          ; preds = %entry
  %4 = load i32, ptr %res, align 4
  %conv1 = zext i32 %4 to i64
  %5 = load ptr, ptr %out.addr, align 8
  store i64 %conv1, ptr %5, align 8
  %6 = load ptr, ptr %p.addr, align 8
  %add.ptr = getelementptr inbounds i8, ptr %6, i64 1
  store ptr %add.ptr, ptr %retval, align 8
  br label %return

if.end:                                           ; preds = %entry
  %7 = load ptr, ptr %p.addr, align 8
  %8 = load i32, ptr %res, align 4
  %9 = load ptr, ptr %out.addr, align 8
  %call = call noundef ptr @_ZN6google8protobuf8internal15VarintParseSlowEPKcjPm(ptr noundef %7, i32 noundef %8, ptr noundef %9)
  store ptr %call, ptr %retval, align 8
  br label %return

return:                                           ; preds = %if.end, %if.then
  %10 = load ptr, ptr %retval, align 8
  ret ptr %10
}

; Function Attrs: mustprogress uwtable
define internal noundef ptr @"_ZN6google8protobuf8internal21ReadPackedVarintArrayIZNS1_10WireFormat27_InternalParseAndMergeFieldEPNS0_7MessageEPKcPNS1_12ParseContextEmPKNS0_10ReflectionEPKNS0_15FieldDescriptorEE3$_0EES7_S7_S7_T_"(ptr noundef %ptr, ptr noundef %end, ptr noundef byval(%class.anon) align 8 %add) #4 {
entry:
  %retval = alloca ptr, align 8
  %ptr.addr = alloca ptr, align 8
  %end.addr = alloca ptr, align 8
  %varint = alloca i64, align 8
  store ptr %ptr, ptr %ptr.addr, align 8
  store ptr %end, ptr %end.addr, align 8
  br label %while.cond

while.cond:                                       ; preds = %if.end, %entry
  %0 = load ptr, ptr %ptr.addr, align 8
  %1 = load ptr, ptr %end.addr, align 8
  %cmp = icmp ult ptr %0, %1
  br i1 %cmp, label %while.body, label %while.end

while.body:                                       ; preds = %while.cond
  %2 = load ptr, ptr %ptr.addr, align 8
  %call = call noundef ptr @_ZN6google8protobuf8internal11VarintParseImEEPKcS4_PT_(ptr noundef %2, ptr noundef %varint)
  store ptr %call, ptr %ptr.addr, align 8
  %3 = load ptr, ptr %ptr.addr, align 8
  %cmp1 = icmp eq ptr %3, null
  br i1 %cmp1, label %if.then, label %if.end

if.then:                                          ; preds = %while.body
  store ptr null, ptr %retval, align 8
  br label %return

if.end:                                           ; preds = %while.body
  %4 = load i64, ptr %varint, align 8
  %conv = trunc i64 %4 to i32
  call void @"_ZZN6google8protobuf8internal10WireFormat27_InternalParseAndMergeFieldEPNS0_7MessageEPKcPNS1_12ParseContextEmPKNS0_10ReflectionEPKNS0_15FieldDescriptorEENK3$_0clEi"(ptr noundef nonnull align 8 dereferenceable(32) %add, i32 noundef %conv)
  br label %while.cond, !llvm.loop !104

while.end:                                        ; preds = %while.cond
  %5 = load ptr, ptr %ptr.addr, align 8
  store ptr %5, ptr %retval, align 8
  br label %return

return:                                           ; preds = %while.end, %if.then
  %6 = load ptr, ptr %retval, align 8
  ret ptr %6
}