; Function Attrs: mustprogress uwtable
define internal fastcc noundef ptr @"_ZN6google8protobuf8internal21ReadPackedVarintArrayIZNS1_10WireFormat27_InternalParseAndMergeFieldEPNS0_7MessageEPKcPNS1_12ParseContextEmPKNS0_10ReflectionEPKNS0_15FieldDescriptorEE3$_0EES7_S7_S7_T_"(ptr noundef %ptr, ptr noundef readnone %end, ptr noundef readonly byval(%class.anon) align 8 captures(none) %add) unnamed_addr #3 {
entry:
  %cmp12 = icmp ult ptr %ptr, %end
  br i1 %cmp12, label %while.body.lr.ph, label %return

while.body.lr.ph:                                 ; preds = %entry
  %0 = getelementptr inbounds nuw i8, ptr %add, i64 8
  %1 = getelementptr inbounds nuw i8, ptr %add, i64 16
  %2 = getelementptr inbounds nuw i8, ptr %add, i64 24
  br label %while.body

while.body:                                       ; preds = %while.body.lr.ph, %"_ZZN6google8protobuf8internal10WireFormat27_InternalParseAndMergeFieldEPNS0_7MessageEPKcPNS1_12ParseContextEmPKNS0_10ReflectionEPKNS0_15FieldDescriptorEENK3$_0clEi.exit"
  %ptr.addr.013 = phi ptr [ %ptr, %while.body.lr.ph ], [ %retval.0.i11, %"_ZZN6google8protobuf8internal10WireFormat27_InternalParseAndMergeFieldEPNS0_7MessageEPKcPNS1_12ParseContextEmPKNS0_10ReflectionEPKNS0_15FieldDescriptorEENK3$_0clEi.exit" ]
  %3 = load i8, ptr %ptr.addr.013, align 1
  %cmp.i = icmp sgt i8 %3, -1
  br i1 %cmp.i, label %_ZN6google8protobuf8internal11VarintParseImEEPKcS4_PT_.exit.thread, label %_ZN6google8protobuf8internal11VarintParseImEEPKcS4_PT_.exit

_ZN6google8protobuf8internal11VarintParseImEEPKcS4_PT_.exit.thread: ; preds = %while.body
  %conv1.i = zext nneg i8 %3 to i64
  %add.ptr.i = getelementptr inbounds nuw i8, ptr %ptr.addr.013, i64 1
  br label %if.end

_ZN6google8protobuf8internal11VarintParseImEEPKcS4_PT_.exit: ; preds = %while.body
  %conv.i = zext i8 %3 to i32
  %call.i.i = tail call { ptr, i64 } @_ZN6google8protobuf8internal17VarintParseSlow64EPKcj(ptr noundef nonnull %ptr.addr.013, i32 noundef %conv.i)
  %4 = extractvalue { ptr, i64 } %call.i.i, 0
  %5 = extractvalue { ptr, i64 } %call.i.i, 1
  %cmp1 = icmp eq ptr %4, null
  br i1 %cmp1, label %return, label %if.end

if.end:                                           ; preds = %_ZN6google8protobuf8internal11VarintParseImEEPKcS4_PT_.exit.thread, %_ZN6google8protobuf8internal11VarintParseImEEPKcS4_PT_.exit
  %retval.0.i11 = phi ptr [ %add.ptr.i, %_ZN6google8protobuf8internal11VarintParseImEEPKcS4_PT_.exit.thread ], [ %4, %_ZN6google8protobuf8internal11VarintParseImEEPKcS4_PT_.exit ]
  %.sink.i10 = phi i64 [ %conv1.i, %_ZN6google8protobuf8internal11VarintParseImEEPKcS4_PT_.exit.thread ], [ %5, %_ZN6google8protobuf8internal11VarintParseImEEPKcS4_PT_.exit ]
  %conv = trunc i64 %.sink.i10 to i32
  %6 = load ptr, ptr %0, align 8
  %call.i = tail call noundef ptr @_ZNK6google8protobuf15FieldDescriptor9enum_typeEv(ptr noundef nonnull align 8 dereferenceable(88) %6)
  %call2.i = tail call noundef ptr @_ZNK6google8protobuf14EnumDescriptor17FindValueByNumberEi(ptr noundef nonnull align 8 dereferenceable(88) %call.i, i32 noundef %conv)
  %cmp.not.i = icmp eq ptr %call2.i, null
  br i1 %cmp.not.i, label %if.else.i, label %if.then.i4

if.then.i4:                                       ; preds = %if.end
  %7 = load ptr, ptr %add, align 8
  %total_size_.i.i = getelementptr inbounds nuw i8, ptr %7, i64 4
  %8 = load i32, ptr %total_size_.i.i, align 4
  %9 = load i32, ptr %7, align 8
  %cmp.i.i = icmp eq i32 %9, %8
  br i1 %cmp.i.i, label %if.then.i.i, label %_ZN6google8protobuf13RepeatedFieldIiE3AddEi.exit.i

if.then.i.i:                                      ; preds = %if.then.i4
  %add.i.i = add nsw i32 %8, 1
  tail call void @_ZN6google8protobuf13RepeatedFieldIiE14GrowNoAnnotateEii(ptr noundef nonnull align 8 dereferenceable(16) %7, i32 noundef %8, i32 noundef %add.i.i)
  %10 = load i32, ptr %total_size_.i.i, align 4
  %.pre.i.i = load i32, ptr %7, align 8
  br label %_ZN6google8protobuf13RepeatedFieldIiE3AddEi.exit.i

_ZN6google8protobuf13RepeatedFieldIiE3AddEi.exit.i: ; preds = %if.then.i.i, %if.then.i4
  %11 = phi i32 [ %.pre.i.i, %if.then.i.i ], [ %9, %if.then.i4 ]
  %total_size.0.i.i = phi i32 [ %10, %if.then.i.i ], [ %8, %if.then.i4 ]
  %arena_or_elements_.i.i.i = getelementptr inbounds nuw i8, ptr %7, i64 8
  %elem.0.i.i = load ptr, ptr %arena_or_elements_.i.i.i, align 8
  %add7.i.i = add nsw i32 %11, 1
  store i32 %add7.i.i, ptr %7, align 8
  %idx.ext.i.i = sext i32 %11 to i64
  %add.ptr.i.i = getelementptr inbounds i32, ptr %elem.0.i.i, i64 %idx.ext.i.i
  store i32 %conv, ptr %add.ptr.i.i, align 4
  %12 = load i32, ptr %7, align 8
  %cmp10.i.i = icmp eq i32 %add7.i.i, %12
  tail call void @llvm.assume(i1 %cmp10.i.i)
  %13 = load ptr, ptr %arena_or_elements_.i.i.i, align 8
  %cmp11.i.i = icmp eq ptr %elem.0.i.i, %13
  tail call void @llvm.assume(i1 %cmp11.i.i)
  %14 = load i32, ptr %total_size_.i.i, align 4
  %cmp13.i.i = icmp eq i32 %total_size.0.i.i, %14
  tail call void @llvm.assume(i1 %cmp13.i.i)
  br label %"_ZZN6google8protobuf8internal10WireFormat27_InternalParseAndMergeFieldEPNS0_7MessageEPKcPNS1_12ParseContextEmPKNS0_10ReflectionEPKNS0_15FieldDescriptorEENK3$_0clEi.exit"

if.else.i:                                        ; preds = %if.end
  %number_.i.i = getelementptr inbounds nuw i8, ptr %6, i64 4
  %15 = load i32, ptr %number_.i.i, align 4
  %sext = shl i64 %.sink.i10, 32
  %conv.i6 = ashr exact i64 %sext, 32
  %16 = load ptr, ptr %1, align 8
  %17 = load ptr, ptr %2, align 8
  %call4.i = tail call noundef ptr @_ZNK6google8protobuf10Reflection20MutableUnknownFieldsEPNS0_7MessageE(ptr noundef nonnull align 8 dereferenceable(112) %16, ptr noundef %17)
  tail call void @_ZN6google8protobuf15UnknownFieldSet9AddVarintEim(ptr noundef nonnull align 8 dereferenceable(24) %call4.i, i32 noundef %15, i64 noundef %conv.i6)
  br label %"_ZZN6google8protobuf8internal10WireFormat27_InternalParseAndMergeFieldEPNS0_7MessageEPKcPNS1_12ParseContextEmPKNS0_10ReflectionEPKNS0_15FieldDescriptorEENK3$_0clEi.exit"

"_ZZN6google8protobuf8internal10WireFormat27_InternalParseAndMergeFieldEPNS0_7MessageEPKcPNS1_12ParseContextEmPKNS0_10ReflectionEPKNS0_15FieldDescriptorEENK3$_0clEi.exit": ; preds = %_ZN6google8protobuf13RepeatedFieldIiE3AddEi.exit.i, %if.else.i
  %cmp = icmp ult ptr %retval.0.i11, %end
  br i1 %cmp, label %while.body, label %return, !llvm.loop !123

return:                                           ; preds = %_ZN6google8protobuf8internal11VarintParseImEEPKcS4_PT_.exit, %"_ZZN6google8protobuf8internal10WireFormat27_InternalParseAndMergeFieldEPNS0_7MessageEPKcPNS1_12ParseContextEmPKNS0_10ReflectionEPKNS0_15FieldDescriptorEENK3$_0clEi.exit", %entry
  %retval.0 = phi ptr [ %ptr, %entry ], [ %retval.0.i11, %"_ZZN6google8protobuf8internal10WireFormat27_InternalParseAndMergeFieldEPNS0_7MessageEPKcPNS1_12ParseContextEmPKNS0_10ReflectionEPKNS0_15FieldDescriptorEENK3$_0clEi.exit" ], [ null, %_ZN6google8protobuf8internal11VarintParseImEEPKcS4_PT_.exit ]
  ret ptr %retval.0
}